target datalayout = "e-m:e-p270:32:32-p271:32:32-p272:64:64-i64:64-i128:128-f80:128-n8:16:32:64-S128"
target triple = "x86_64-pc-linux-gnu"

; Function Attrs: mustprogress uwtable
define internal noundef i32 @_ZL10luaB_errorP9lua_State(ptr noundef %0) #0 {
  %2 = alloca ptr, align 8
  %3 = alloca i32, align 4
  store ptr %0, ptr %2, align 8
  %4 = load ptr, ptr %2, align 8
  %5 = call noundef i32 @_Z15luaL_optintegerP9lua_Stateii(ptr noundef %4, i32 noundef 2, i32 noundef 1)
  store i32 %5, ptr %3, align 4
  %6 = load ptr, ptr %2, align 8
  call void @_Z10lua_settopP9lua_Statei(ptr noundef %6, i32 noundef 1)
  %7 = load ptr, ptr %2, align 8
  %8 = call noundef i32 @_Z12lua_isstringP9lua_Statei(ptr noundef %7, i32 noundef 1)
  %9 = icmp ne i32 %8, 0
  br i1 %9, label %10, label %18

10:                                               ; preds = %1
  %11 = load i32, ptr %3, align 4
  %12 = icmp sgt i32 %11, 0
  br i1 %12, label %13, label %18

13:                                               ; preds = %10
  %14 = load ptr, ptr %2, align 8
  %15 = load i32, ptr %3, align 4
  call void @_Z10luaL_whereP9lua_Statei(ptr noundef %14, i32 noundef %15)
  %16 = load ptr, ptr %2, align 8
  call void @_Z13lua_pushvalueP9lua_Statei(ptr noundef %16, i32 noundef 1)
  %17 = load ptr, ptr %2, align 8
  call void @_Z10lua_concatP9lua_Statei(ptr noundef %17, i32 noundef 2)
  br label %18

18:                                               ; preds = %13, %10, %1
  %19 = load ptr, ptr %2, align 8
  call void @_Z9lua_errorP9lua_State(ptr noundef %19) #5
  unreachable
}