; Function Attrs: mustprogress noreturn uwtable
define internal noundef i32 @_ZL10luaB_errorP9lua_State(ptr noundef %0) #2 {
  %2 = tail call noundef i32 @_Z15luaL_optintegerP9lua_Stateii(ptr noundef %0, i32 noundef 2, i32 noundef 1)
  tail call void @_Z10lua_settopP9lua_Statei(ptr noundef %0, i32 noundef 1)
  %3 = tail call noundef i32 @_Z12lua_isstringP9lua_Statei(ptr noundef %0, i32 noundef 1)
  %4 = icmp ne i32 %3, 0
  %5 = icmp sgt i32 %2, 0
  %or.cond = and i1 %5, %4
  br i1 %or.cond, label %6, label %7

6:                                                ; preds = %1
  tail call void @_Z10luaL_whereP9lua_Statei(ptr noundef %0, i32 noundef %2)
  tail call void @_Z13lua_pushvalueP9lua_Statei(ptr noundef %0, i32 noundef 1)
  tail call void @_Z10lua_concatP9lua_Statei(ptr noundef %0, i32 noundef 2)
  br label %7

7:                                                ; preds = %6, %1
  tail call void @_Z9lua_errorP9lua_State(ptr noundef %0) #9
  unreachable
}